; Function Attrs: nounwind uwtable
define noalias nonnull ptr @l_Lean_profiler_threshold_getSecs___boxed(ptr noundef %0) local_unnamed_addr #0 {
  %2 = load ptr, ptr @l_Lean_profiler_threshold_getSecs___closed__1, align 8, !tbaa !4
  %3 = tail call ptr @l_Lean_Option_get___at_Lean_profiler_threshold_getSecs___spec__1(ptr noundef %0, ptr noundef %2)
  %4 = ptrtoint ptr %0 to i64
  %5 = and i64 %4, 1
  %.not.i = icmp eq i64 %5, 0
  br i1 %.not.i, label %6, label %lean_dec.exit9.i

6:                                                ; preds = %1
  %7 = load i32, ptr %0, align 4, !tbaa !10
  %8 = icmp sgt i32 %7, 1
  br i1 %8, label %9, label %11, !prof !14

9:                                                ; preds = %6
  %10 = add nsw i32 %7, -1
  store i32 %10, ptr %0, align 4, !tbaa !10
  br label %lean_dec.exit9.i

11:                                               ; preds = %6
  %.not.i.i = icmp eq i32 %7, 0
  br i1 %.not.i.i, label %lean_dec.exit9.i, label %12

12:                                               ; preds = %11
  tail call void @lean_dec_ref_cold(ptr noundef nonnull %0) #3
  br label %lean_dec.exit9.i

lean_dec.exit9.i:                                 ; preds = %12, %11, %9, %1
  %13 = tail call double @l_Float_ofScientific(ptr noundef %3, i8 noundef zeroext 0, ptr noundef nonnull inttoptr (i64 1 to ptr)) #3
  %14 = ptrtoint ptr %3 to i64
  %15 = and i64 %14, 1
  %.not12.i = icmp eq i64 %15, 0
  br i1 %.not12.i, label %16, label %lean_get_profiler_threshold.exit

16:                                               ; preds = %lean_dec.exit9.i
  %17 = load i32, ptr %3, align 4, !tbaa !10
  %18 = icmp sgt i32 %17, 1
  br i1 %18, label %19, label %21, !prof !14

19:                                               ; preds = %16
  %20 = add nsw i32 %17, -1
  store i32 %20, ptr %3, align 4, !tbaa !10
  br label %lean_get_profiler_threshold.exit

21:                                               ; preds = %16
  %.not.i10.i = icmp eq i32 %17, 0
  br i1 %.not.i10.i, label %lean_get_profiler_threshold.exit, label %22

22:                                               ; preds = %21
  tail call void @lean_dec_ref_cold(ptr noundef nonnull %3) #3
  br label %lean_get_profiler_threshold.exit

lean_get_profiler_threshold.exit:                 ; preds = %lean_dec.exit9.i, %19, %21, %22
  %23 = load double, ptr @l_Lean_profiler_threshold_getSecs___closed__2, align 8, !tbaa !15
  tail call void @lean_inc_heartbeat() #3
  %24 = tail call noalias ptr @mi_malloc_small(i64 noundef 16) #3
  %25 = icmp eq ptr %24, null
  br i1 %25, label %26, label %lean_box_float.exit

26:                                               ; preds = %lean_get_profiler_threshold.exit
  tail call void @lean_internal_panic_out_of_memory() #4
  unreachable

lean_box_float.exit:                              ; preds = %lean_get_profiler_threshold.exit
  %27 = fdiv double %13, %23
  %28 = getelementptr inbounds nuw i8, ptr %24, i64 4
  store i32 1, ptr %24, align 4, !tbaa !10
  store i32 16, ptr %28, align 4
  %29 = getelementptr inbounds nuw i8, ptr %24, i64 8
  store double %27, ptr %29, align 8, !tbaa !15
  ret ptr %24
}